(i__main__
LogFile
p0
(dp1
S'_installed_files'
p2
(dp3
S'../../TriggerList/genConf/TriggerList'
p4
(dp5
S'../../../TriggerList/genConf/TriggerList/TriggerListConf.py'
p6
S'../../InstallArea/python/TriggerList/TriggerListConf.py'
p7
ssS'../../../../../../../cvmfs/atlas.cern.ch/repo/sw/software/AthAnalysisBase/x86_64-slc6-gcc49-opt/2.4.25/GAUDI/v26r2p1-lcg81e/GaudiPolicy/cmt/fragments/__init__.py'
p8
S'../../InstallArea/python/TriggerList/__init__.py'
p9
ssb.